target datalayout = "e-m:e-p270:32:32-p271:32:32-p272:64:64-i64:64-i128:128-f80:128-n8:16:32:64-S128"
target triple = "x86_64-unknown-linux-gnu"

%"struct.node::AssertionInfo" = type { ptr, ptr, ptr }
%"class.node::tracing::InternalTraceBuffer" = type { %"class.node::MutexBase", i8, i64, ptr, %"class.std::vector", i64, i32, i32 }
%"class.node::MutexBase" = type { %union.pthread_mutex_t }
%union.pthread_mutex_t = type { %struct.__pthread_mutex_s }
%struct.__pthread_mutex_s = type { i32, i32, i32, i32, i32, i16, i16, %struct.__pthread_internal_list }
%struct.__pthread_internal_list = type { ptr, ptr }
%"class.std::vector" = type { %"struct.std::_Vector_base" }
%"struct.std::_Vector_base" = type { %"struct.std::_Vector_base<std::unique_ptr<v8::platform::tracing::TraceBufferChunk>, std::allocator<std::unique_ptr<v8::platform::tracing::TraceBufferChunk>>>::_Vector_impl" }
%"struct.std::_Vector_base<std::unique_ptr<v8::platform::tracing::TraceBufferChunk>, std::allocator<std::unique_ptr<v8::platform::tracing::TraceBufferChunk>>>::_Vector_impl" = type { %"struct.std::_Vector_base<std::unique_ptr<v8::platform::tracing::TraceBufferChunk>, std::allocator<std::unique_ptr<v8::platform::tracing::TraceBufferChunk>>>::_Vector_impl_data" }
%"struct.std::_Vector_base<std::unique_ptr<v8::platform::tracing::TraceBufferChunk>, std::allocator<std::unique_ptr<v8::platform::tracing::TraceBufferChunk>>>::_Vector_impl_data" = type { ptr, ptr, ptr }
%"class.node::tracing::NodeTraceBuffer" = type { %"class.v8::platform::tracing::TraceBuffer", ptr, %struct.uv_async_s, %struct.uv_async_s, i8, %"class.node::MutexBase", %"class.node::ConditionVariableBase", %"struct.std::atomic", %"class.node::tracing::InternalTraceBuffer", %"class.node::tracing::InternalTraceBuffer" }
%"class.v8::platform::tracing::TraceBuffer" = type { ptr }
%struct.uv_async_s = type { ptr, ptr, i32, ptr, %struct.uv__queue, %union.anon.10, ptr, i32, ptr, %struct.uv__queue, i32 }
%union.anon.10 = type { [4 x ptr] }
%struct.uv__queue = type { ptr, ptr }
%"class.node::ConditionVariableBase" = type { %union.pthread_cond_t }
%union.pthread_cond_t = type { %struct.__pthread_cond_s }
%struct.__pthread_cond_s = type { %union.__atomic_wide_counter, %union.__atomic_wide_counter, [2 x i32], [2 x i32], i32, i32, [2 x i32] }
%union.__atomic_wide_counter = type { i64 }
%"struct.std::atomic" = type { %"struct.std::__atomic_base" }
%"struct.std::__atomic_base" = type { ptr }

@_ZZN4node7tracing15NodeTraceBufferC1EmPNS0_5AgentEP9uv_loop_sE4args = internal constant %"struct.node::AssertionInfo" { ptr @.str, ptr @.str.1, ptr @.str.2 }, align 8
@_ZZN4node7tracing15NodeTraceBufferC1EmPNS0_5AgentEP9uv_loop_sE4args_0 = internal constant %"struct.node::AssertionInfo" { ptr @.str.3, ptr @.str.1, ptr @.str.2 }, align 8
@_ZZN4node9MutexBaseINS_16LibuvMutexTraitsEEC1EvE4args = linkonce_odr dso_local constant %"struct.node::AssertionInfo" { ptr @.str.4, ptr @.str.5, ptr @.str.6 }, comdat, align 8
@_ZZN4node21ConditionVariableBaseINS_16LibuvMutexTraitsEEC1EvE4args = linkonce_odr dso_local constant %"struct.node::AssertionInfo" { ptr @.str.8, ptr @.str.9, ptr @.str.10 }, comdat, align 8
@_ZN4node7tracing19InternalTraceBufferC1EmjPNS0_5AgentE = dso_local unnamed_addr alias void (ptr, i64, i32, ptr), ptr @_ZN4node7tracing19InternalTraceBufferC2EmjPNS0_5AgentE

; Function Attrs: mustprogress nounwind uwtable
define linkonce_odr dso_local noundef i32 @_ZStanSt12memory_orderSt23__memory_order_modifier(i32 noundef %__m, i32 noundef %__mod) #0 comdat {
entry:
  %__m.addr = alloca i32, align 4
  %__mod.addr = alloca i32, align 4
  store i32 %__m, ptr %__m.addr, align 4
  store i32 %__mod, ptr %__mod.addr, align 4
  %0 = load i32, ptr %__m.addr, align 4
  %1 = load i32, ptr %__mod.addr, align 4
  %and = and i32 %0, %1
  ret i32 %and
}

; Function Attrs: mustprogress nounwind uwtable
define linkonce_odr dso_local noundef i32 @_ZN4node16LibuvMutexTraits9cond_initEP14pthread_cond_t(ptr noundef %cond) #0 comdat align 2 {
entry:
  %cond.addr = alloca ptr, align 8
  store ptr %cond, ptr %cond.addr, align 8
  %0 = load ptr, ptr %cond.addr, align 8
  %call = call i32 @uv_cond_init(ptr noundef %0)
  ret i32 %call
}

; Function Attrs: mustprogress nounwind uwtable
define linkonce_odr dso_local noundef i32 @_ZN4node16LibuvMutexTraits10mutex_initEP15pthread_mutex_t(ptr noundef %mutex) #0 comdat align 2 {
entry:
  %mutex.addr = alloca ptr, align 8
  store ptr %mutex, ptr %mutex.addr, align 8
  %0 = load ptr, ptr %mutex.addr, align 8
  %call = call i32 @uv_mutex_init(ptr noundef %0)
  ret i32 %call
}

; Function Attrs: mustprogress nounwind uwtable
define linkonce_odr dso_local void @_ZNSt6atomicIPN4node7tracing19InternalTraceBufferEE5storeES3_St12memory_order(ptr noundef nonnull align 8 dereferenceable(8) %this, ptr noundef %__p, i32 noundef %__m) #0 comdat align 2 {
entry:
  %this.addr.i = alloca ptr, align 8
  %__p.addr.i = alloca ptr, align 8
  %__m.addr.i = alloca i32, align 4
  %__b.i = alloca i32, align 4
  %.atomictmp.i = alloca ptr, align 8
  %this.addr = alloca ptr, align 8
  %__p.addr = alloca ptr, align 8
  %__m.addr = alloca i32, align 4
  store ptr %this, ptr %this.addr, align 8
  store ptr %__p, ptr %__p.addr, align 8
  store i32 %__m, ptr %__m.addr, align 4
  %this1 = load ptr, ptr %this.addr, align 8
  %_M_b = getelementptr inbounds %"struct.std::atomic", ptr %this1, i32 0, i32 0
  %0 = load ptr, ptr %__p.addr, align 8
  %1 = load i32, ptr %__m.addr, align 4
  store ptr %_M_b, ptr %this.addr.i, align 8
  store ptr %0, ptr %__p.addr.i, align 8
  store i32 %1, ptr %__m.addr.i, align 4
  %this1.i = load ptr, ptr %this.addr.i, align 8
  %2 = load i32, ptr %__m.addr.i, align 4
  %call.i = call noundef i32 @_ZStanSt12memory_orderSt23__memory_order_modifier(i32 noundef %2, i32 noundef 65535)
  store i32 %call.i, ptr %__b.i, align 4
  %3 = load i32, ptr %__m.addr.i, align 4
  %4 = load ptr, ptr %__p.addr.i, align 8
  store ptr %4, ptr %.atomictmp.i, align 8
  switch i32 %3, label %monotonic.i [
    i32 3, label %release.i
    i32 5, label %seqcst.i
  ]

monotonic.i:                                      ; preds = %entry
  %5 = load i64, ptr %.atomictmp.i, align 8
  store atomic i64 %5, ptr %this1.i monotonic, align 8
  br label %_ZNSt13__atomic_baseIPN4node7tracing19InternalTraceBufferEE5storeES3_St12memory_order.exit

release.i:                                        ; preds = %entry
  %6 = load i64, ptr %.atomictmp.i, align 8
  store atomic i64 %6, ptr %this1.i release, align 8
  br label %_ZNSt13__atomic_baseIPN4node7tracing19InternalTraceBufferEE5storeES3_St12memory_order.exit

seqcst.i:                                         ; preds = %entry
  %7 = load i64, ptr %.atomictmp.i, align 8
  store atomic i64 %7, ptr %this1.i seq_cst, align 8
  br label %_ZNSt13__atomic_baseIPN4node7tracing19InternalTraceBufferEE5storeES3_St12memory_order.exit

_ZNSt13__atomic_baseIPN4node7tracing19InternalTraceBufferEE5storeES3_St12memory_order.exit: ; preds = %seqcst.i, %release.i, %monotonic.i
  ret void
}

; Function Attrs: mustprogress nounwind uwtable
define linkonce_odr dso_local void @_ZN4node21ConditionVariableBaseINS_16LibuvMutexTraitsEEC2Ev(ptr noundef nonnull align 8 dereferenceable(48) %this) unnamed_addr #0 comdat align 2 {
entry:
  %this.addr = alloca ptr, align 8
  store ptr %this, ptr %this.addr, align 8
  %this1 = load ptr, ptr %this.addr, align 8
  br label %do.body

do.body:                                          ; preds = %entry
  %cond_2 = getelementptr inbounds %"class.node::ConditionVariableBase", ptr %this1, i32 0, i32 0
  %call = call noundef i32 @_ZN4node16LibuvMutexTraits9cond_initEP14pthread_cond_t(ptr noundef %cond_2)
  %cmp = icmp eq i32 0, %call
  %lnot = xor i1 %cmp, true
  %lnot3 = xor i1 %lnot, true
  %lnot4 = xor i1 %lnot3, true
  br i1 %lnot4, label %if.then, label %if.end

if.then:                                          ; preds = %do.body
  br label %do.body5

do.body5:                                         ; preds = %if.then
  call void @_ZN4node6AssertERKNS_13AssertionInfoE(ptr noundef nonnull align 8 dereferenceable(24) @_ZZN4node21ConditionVariableBaseINS_16LibuvMutexTraitsEEC1EvE4args)
  call void @abort() #11
  unreachable

do.end:                                           ; No predecessors!
  br label %if.end

if.end:                                           ; preds = %do.end, %do.body
  br label %do.end6

do.end6:                                          ; preds = %if.end
  ret void
}

; Function Attrs: mustprogress nounwind uwtable
define linkonce_odr dso_local void @_ZN4node9MutexBaseINS_16LibuvMutexTraitsEEC2Ev(ptr noundef nonnull align 8 dereferenceable(40) %this) unnamed_addr #0 comdat align 2 {
entry:
  %this.addr = alloca ptr, align 8
  store ptr %this, ptr %this.addr, align 8
  %this1 = load ptr, ptr %this.addr, align 8
  br label %do.body

do.body:                                          ; preds = %entry
  %mutex_2 = getelementptr inbounds %"class.node::MutexBase", ptr %this1, i32 0, i32 0
  %call = call noundef i32 @_ZN4node16LibuvMutexTraits10mutex_initEP15pthread_mutex_t(ptr noundef %mutex_2)
  %cmp = icmp eq i32 0, %call
  %lnot = xor i1 %cmp, true
  %lnot3 = xor i1 %lnot, true
  %lnot4 = xor i1 %lnot3, true
  br i1 %lnot4, label %if.then, label %if.end

if.then:                                          ; preds = %do.body
  br label %do.body5

do.body5:                                         ; preds = %if.then
  call void @_ZN4node6AssertERKNS_13AssertionInfoE(ptr noundef nonnull align 8 dereferenceable(24) @_ZZN4node9MutexBaseINS_16LibuvMutexTraitsEEC1EvE4args)
  call void @abort() #11
  unreachable

do.end:                                           ; No predecessors!
  br label %if.end

if.end:                                           ; preds = %do.end, %do.body
  br label %do.end6

do.end6:                                          ; preds = %if.end
  ret void
}

; Function Attrs: mustprogress nounwind uwtable
define linkonce_odr dso_local void @_ZN2v88platform7tracing11TraceBufferC2Ev(ptr noundef nonnull align 8 dereferenceable(8) %this) unnamed_addr #0 comdat align 2 {
entry:
  %this.addr = alloca ptr, align 8
  store ptr %this, ptr %this.addr, align 8
  %this1 = load ptr, ptr %this.addr, align 8
  store ptr getelementptr inbounds ({ [7 x ptr] }, ptr @_ZTVN2v88platform7tracing11TraceBufferE, i32 0, i32 0, i32 2), ptr %this1, align 8
  ret void
}

; Function Attrs: mustprogress nounwind uwtable
define dso_local void @_ZN4node7tracing15NodeTraceBufferC2EmPNS0_5AgentEP9uv_loop_s(ptr noundef nonnull align 8 dereferenceable(584) %this, i64 noundef %max_chunks, ptr noundef %agent, ptr noundef %tracing_loop) unnamed_addr #0 align 2 {
entry:
  %this.addr = alloca ptr, align 8
  %max_chunks.addr = alloca i64, align 8
  %agent.addr = alloca ptr, align 8
  %tracing_loop.addr = alloca ptr, align 8
  %err = alloca i32, align 4
  store ptr %this, ptr %this.addr, align 8
  store i64 %max_chunks, ptr %max_chunks.addr, align 8
  store ptr %agent, ptr %agent.addr, align 8
  store ptr %tracing_loop, ptr %tracing_loop.addr, align 8
  %this1 = load ptr, ptr %this.addr, align 8
  call void @_ZN2v88platform7tracing11TraceBufferC2Ev(ptr noundef nonnull align 8 dereferenceable(8) %this1) #10
  store ptr getelementptr inbounds ({ [7 x ptr] }, ptr @_ZTVN4node7tracing15NodeTraceBufferE, i32 0, i32 0, i32 2), ptr %this1, align 8
  %tracing_loop_ = getelementptr inbounds %"class.node::tracing::NodeTraceBuffer", ptr %this1, i32 0, i32 1
  %0 = load ptr, ptr %tracing_loop.addr, align 8
  store ptr %0, ptr %tracing_loop_, align 8
  %exited_ = getelementptr inbounds %"class.node::tracing::NodeTraceBuffer", ptr %this1, i32 0, i32 4
  store i8 0, ptr %exited_, align 8
  %exit_mutex_ = getelementptr inbounds %"class.node::tracing::NodeTraceBuffer", ptr %this1, i32 0, i32 5
  call void @_ZN4node9MutexBaseINS_16LibuvMutexTraitsEEC2Ev(ptr noundef nonnull align 8 dereferenceable(40) %exit_mutex_)
  %exit_cond_ = getelementptr inbounds %"class.node::tracing::NodeTraceBuffer", ptr %this1, i32 0, i32 6
  call void @_ZN4node21ConditionVariableBaseINS_16LibuvMutexTraitsEEC2Ev(ptr noundef nonnull align 8 dereferenceable(48) %exit_cond_)
  %buffer1_ = getelementptr inbounds %"class.node::tracing::NodeTraceBuffer", ptr %this1, i32 0, i32 8
  %1 = load i64, ptr %max_chunks.addr, align 8
  %2 = load ptr, ptr %agent.addr, align 8
  call void @_ZN4node7tracing19InternalTraceBufferC1EmjPNS0_5AgentE(ptr noundef nonnull align 8 dereferenceable(104) %buffer1_, i64 noundef %1, i32 noundef 0, ptr noundef %2)
  %buffer2_ = getelementptr inbounds %"class.node::tracing::NodeTraceBuffer", ptr %this1, i32 0, i32 9
  %3 = load i64, ptr %max_chunks.addr, align 8
  %4 = load ptr, ptr %agent.addr, align 8
  call void @_ZN4node7tracing19InternalTraceBufferC1EmjPNS0_5AgentE(ptr noundef nonnull align 8 dereferenceable(104) %buffer2_, i64 noundef %3, i32 noundef 1, ptr noundef %4)
  %current_buf_2 = getelementptr inbounds %"class.node::tracing::NodeTraceBuffer", ptr %this1, i32 0, i32 7
  %buffer1_3 = getelementptr inbounds %"class.node::tracing::NodeTraceBuffer", ptr %this1, i32 0, i32 8
  call void @_ZNSt6atomicIPN4node7tracing19InternalTraceBufferEE5storeES3_St12memory_order(ptr noundef nonnull align 8 dereferenceable(8) %current_buf_2, ptr noundef %buffer1_3, i32 noundef 5) #10
  %flush_signal_4 = getelementptr inbounds %"class.node::tracing::NodeTraceBuffer", ptr %this1, i32 0, i32 2
  %data = getelementptr inbounds %struct.uv_async_s, ptr %flush_signal_4, i32 0, i32 0
  store ptr %this1, ptr %data, align 8
  %tracing_loop_5 = getelementptr inbounds %"class.node::tracing::NodeTraceBuffer", ptr %this1, i32 0, i32 1
  %5 = load ptr, ptr %tracing_loop_5, align 8
  %flush_signal_6 = getelementptr inbounds %"class.node::tracing::NodeTraceBuffer", ptr %this1, i32 0, i32 2
  %call = call i32 @uv_async_init(ptr noundef %5, ptr noundef %flush_signal_6, ptr noundef @_ZN4node7tracing15NodeTraceBuffer24NonBlockingFlushSignalCbEP10uv_async_s)
  store i32 %call, ptr %err, align 4
  br label %do.body

do.body:                                          ; preds = %entry
  %6 = load i32, ptr %err, align 4
  %cmp = icmp eq i32 %6, 0
  %lnot = xor i1 %cmp, true
  %lnot7 = xor i1 %lnot, true
  %lnot8 = xor i1 %lnot7, true
  br i1 %lnot8, label %if.then, label %if.end

if.then:                                          ; preds = %do.body
  br label %do.body9

do.body9:                                         ; preds = %if.then
  call void @_ZN4node6AssertERKNS_13AssertionInfoE(ptr noundef nonnull align 8 dereferenceable(24) @_ZZN4node7tracing15NodeTraceBufferC1EmPNS0_5AgentEP9uv_loop_sE4args)
  call void @abort() #11
  unreachable

do.end:                                           ; No predecessors!
  br label %if.end

if.end:                                           ; preds = %do.end, %do.body
  br label %do.end10

do.end10:                                         ; preds = %if.end
  %exit_signal_11 = getelementptr inbounds %"class.node::tracing::NodeTraceBuffer", ptr %this1, i32 0, i32 3
  %data12 = getelementptr inbounds %struct.uv_async_s, ptr %exit_signal_11, i32 0, i32 0
  store ptr %this1, ptr %data12, align 8
  %tracing_loop_13 = getelementptr inbounds %"class.node::tracing::NodeTraceBuffer", ptr %this1, i32 0, i32 1
  %7 = load ptr, ptr %tracing_loop_13, align 8
  %exit_signal_14 = getelementptr inbounds %"class.node::tracing::NodeTraceBuffer", ptr %this1, i32 0, i32 3
  %call15 = call i32 @uv_async_init(ptr noundef %7, ptr noundef %exit_signal_14, ptr noundef @_ZN4node7tracing15NodeTraceBuffer12ExitSignalCbEP10uv_async_s)
  store i32 %call15, ptr %err, align 4
  br label %do.body16

do.body16:                                        ; preds = %do.end10
  %8 = load i32, ptr %err, align 4
  %cmp17 = icmp eq i32 %8, 0
  %lnot18 = xor i1 %cmp17, true
  %lnot19 = xor i1 %lnot18, true
  %lnot20 = xor i1 %lnot19, true
  br i1 %lnot20, label %if.then21, label %if.end24

if.then21:                                        ; preds = %do.body16
  br label %do.body22

do.body22:                                        ; preds = %if.then21
  call void @_ZN4node6AssertERKNS_13AssertionInfoE(ptr noundef nonnull align 8 dereferenceable(24) @_ZZN4node7tracing15NodeTraceBufferC1EmPNS0_5AgentEP9uv_loop_sE4args_0)
  call void @abort() #11
  unreachable

do.end23:                                         ; No predecessors!
  br label %if.end24

if.end24:                                         ; preds = %do.end23, %do.body16
  br label %do.end25

do.end25:                                         ; preds = %if.end24
  ret void
}