; Function Attrs: mustprogress nounwind uwtable
define dso_local void @_ZN4node7tracing15NodeTraceBufferC2EmPNS0_5AgentEP9uv_loop_s(ptr noundef nonnull align 8 dereferenceable(584) %this, i64 noundef %max_chunks, ptr noundef %agent, ptr noundef %tracing_loop) unnamed_addr #0 align 2 {
entry:
  store ptr getelementptr inbounds ({ [7 x ptr] }, ptr @_ZTVN4node7tracing15NodeTraceBufferE, i64 0, i32 0, i64 2), ptr %this, align 8
  %tracing_loop_ = getelementptr inbounds i8, ptr %this, i64 8
  store ptr %tracing_loop, ptr %tracing_loop_, align 8
  %exited_ = getelementptr inbounds i8, ptr %this, i64 272
  store i8 0, ptr %exited_, align 8
  %exit_mutex_ = getelementptr inbounds i8, ptr %this, i64 280
  %call.i.i = tail call noundef i32 @uv_mutex_init(ptr noundef nonnull %exit_mutex_) #13
  %cmp.not.i = icmp eq i32 %call.i.i, 0
  br i1 %cmp.not.i, label %_ZN4node9MutexBaseINS_16LibuvMutexTraitsEEC2Ev.exit, label %do.body5.i

do.body5.i:                                       ; preds = %entry
  tail call void @_ZN4node6AssertERKNS_13AssertionInfoE(ptr noundef nonnull align 8 dereferenceable(24) @_ZZN4node9MutexBaseINS_16LibuvMutexTraitsEEC1EvE4args) #13
  tail call void @abort() #14
  unreachable

_ZN4node9MutexBaseINS_16LibuvMutexTraitsEEC2Ev.exit: ; preds = %entry
  %exit_cond_ = getelementptr inbounds i8, ptr %this, i64 320
  %call.i.i4 = tail call noundef i32 @uv_cond_init(ptr noundef nonnull %exit_cond_) #13
  %cmp.not.i5 = icmp eq i32 %call.i.i4, 0
  br i1 %cmp.not.i5, label %_ZN4node21ConditionVariableBaseINS_16LibuvMutexTraitsEEC2Ev.exit, label %do.body5.i6

do.body5.i6:                                      ; preds = %_ZN4node9MutexBaseINS_16LibuvMutexTraitsEEC2Ev.exit
  tail call void @_ZN4node6AssertERKNS_13AssertionInfoE(ptr noundef nonnull align 8 dereferenceable(24) @_ZZN4node21ConditionVariableBaseINS_16LibuvMutexTraitsEEC1EvE4args) #13
  tail call void @abort() #14
  unreachable

_ZN4node21ConditionVariableBaseINS_16LibuvMutexTraitsEEC2Ev.exit: ; preds = %_ZN4node9MutexBaseINS_16LibuvMutexTraitsEEC2Ev.exit
  %buffer1_ = getelementptr inbounds i8, ptr %this, i64 376
  %call.i.i.i = tail call noundef i32 @uv_mutex_init(ptr noundef nonnull %buffer1_) #13
  %cmp.not.i.i = icmp eq i32 %call.i.i.i, 0
  br i1 %cmp.not.i.i, label %_ZN4node7tracing19InternalTraceBufferC2EmjPNS0_5AgentE.exit, label %do.body5.i.i

do.body5.i.i:                                     ; preds = %_ZN4node21ConditionVariableBaseINS_16LibuvMutexTraitsEEC2Ev.exit
  tail call void @_ZN4node6AssertERKNS_13AssertionInfoE(ptr noundef nonnull align 8 dereferenceable(24) @_ZZN4node9MutexBaseINS_16LibuvMutexTraitsEEC1EvE4args) #13
  tail call void @abort() #14
  unreachable

_ZN4node7tracing19InternalTraceBufferC2EmjPNS0_5AgentE.exit: ; preds = %_ZN4node21ConditionVariableBaseINS_16LibuvMutexTraitsEEC2Ev.exit
  %flushing_.i = getelementptr inbounds i8, ptr %this, i64 416
  store i8 0, ptr %flushing_.i, align 8
  %max_chunks_.i = getelementptr inbounds i8, ptr %this, i64 424
  store i64 %max_chunks, ptr %max_chunks_.i, align 8
  %agent_.i = getelementptr inbounds i8, ptr %this, i64 432
  store ptr %agent, ptr %agent_.i, align 8
  %chunks_.i = getelementptr inbounds i8, ptr %this, i64 440
  %current_chunk_seq_.i = getelementptr inbounds i8, ptr %this, i64 472
  tail call void @llvm.memset.p0.i64(ptr noundef nonnull align 8 dereferenceable(32) %chunks_.i, i8 0, i64 32, i1 false)
  store i32 1, ptr %current_chunk_seq_.i, align 8
  %id_.i = getelementptr inbounds i8, ptr %this, i64 476
  store i32 0, ptr %id_.i, align 4
  tail call void @_ZNSt6vectorISt10unique_ptrIN2v88platform7tracing16TraceBufferChunkESt14default_deleteIS4_EESaIS7_EE6resizeEm(ptr noundef nonnull align 8 dereferenceable(24) %chunks_.i, i64 noundef %max_chunks)
  %buffer2_ = getelementptr inbounds i8, ptr %this, i64 480
  %call.i.i.i7 = tail call noundef i32 @uv_mutex_init(ptr noundef nonnull %buffer2_) #13
  %cmp.not.i.i8 = icmp eq i32 %call.i.i.i7, 0
  br i1 %cmp.not.i.i8, label %_ZN4node7tracing19InternalTraceBufferC2EmjPNS0_5AgentE.exit16, label %do.body5.i.i9

do.body5.i.i9:                                    ; preds = %_ZN4node7tracing19InternalTraceBufferC2EmjPNS0_5AgentE.exit
  tail call void @_ZN4node6AssertERKNS_13AssertionInfoE(ptr noundef nonnull align 8 dereferenceable(24) @_ZZN4node9MutexBaseINS_16LibuvMutexTraitsEEC1EvE4args) #13
  tail call void @abort() #14
  unreachable

_ZN4node7tracing19InternalTraceBufferC2EmjPNS0_5AgentE.exit16: ; preds = %_ZN4node7tracing19InternalTraceBufferC2EmjPNS0_5AgentE.exit
  %flushing_.i10 = getelementptr inbounds i8, ptr %this, i64 520
  store i8 0, ptr %flushing_.i10, align 8
  %max_chunks_.i11 = getelementptr inbounds i8, ptr %this, i64 528
  store i64 %max_chunks, ptr %max_chunks_.i11, align 8
  %agent_.i12 = getelementptr inbounds i8, ptr %this, i64 536
  store ptr %agent, ptr %agent_.i12, align 8
  %chunks_.i13 = getelementptr inbounds i8, ptr %this, i64 544
  %current_chunk_seq_.i14 = getelementptr inbounds i8, ptr %this, i64 576
  tail call void @llvm.memset.p0.i64(ptr noundef nonnull align 8 dereferenceable(32) %chunks_.i13, i8 0, i64 32, i1 false)
  store i32 1, ptr %current_chunk_seq_.i14, align 8
  %id_.i15 = getelementptr inbounds i8, ptr %this, i64 580
  store i32 1, ptr %id_.i15, align 4
  tail call void @_ZNSt6vectorISt10unique_ptrIN2v88platform7tracing16TraceBufferChunkESt14default_deleteIS4_EESaIS7_EE6resizeEm(ptr noundef nonnull align 8 dereferenceable(24) %chunks_.i13, i64 noundef %max_chunks)
  %current_buf_2 = getelementptr inbounds i8, ptr %this, i64 368
  %0 = ptrtoint ptr %buffer1_ to i64
  store atomic i64 %0, ptr %current_buf_2 seq_cst, align 8
  %flush_signal_4 = getelementptr inbounds i8, ptr %this, i64 16
  store ptr %this, ptr %flush_signal_4, align 8
  %1 = load ptr, ptr %tracing_loop_, align 8
  %call = tail call i32 @uv_async_init(ptr noundef %1, ptr noundef nonnull %flush_signal_4, ptr noundef nonnull @_ZN4node7tracing15NodeTraceBuffer24NonBlockingFlushSignalCbEP10uv_async_s) #13
  %cmp.not = icmp eq i32 %call, 0
  br i1 %cmp.not, label %do.end10, label %do.body9

do.body9:                                         ; preds = %_ZN4node7tracing19InternalTraceBufferC2EmjPNS0_5AgentE.exit16
  tail call void @_ZN4node6AssertERKNS_13AssertionInfoE(ptr noundef nonnull align 8 dereferenceable(24) @_ZZN4node7tracing15NodeTraceBufferC1EmPNS0_5AgentEP9uv_loop_sE4args) #13
  tail call void @abort() #14
  unreachable

do.end10:                                         ; preds = %_ZN4node7tracing19InternalTraceBufferC2EmjPNS0_5AgentE.exit16
  %exit_signal_11 = getelementptr inbounds i8, ptr %this, i64 144
  store ptr %this, ptr %exit_signal_11, align 8
  %2 = load ptr, ptr %tracing_loop_, align 8
  %call15 = tail call i32 @uv_async_init(ptr noundef %2, ptr noundef nonnull %exit_signal_11, ptr noundef nonnull @_ZN4node7tracing15NodeTraceBuffer12ExitSignalCbEP10uv_async_s) #13
  %cmp17.not = icmp eq i32 %call15, 0
  br i1 %cmp17.not, label %do.end25, label %do.body22

do.body22:                                        ; preds = %do.end10
  tail call void @_ZN4node6AssertERKNS_13AssertionInfoE(ptr noundef nonnull align 8 dereferenceable(24) @_ZZN4node7tracing15NodeTraceBufferC1EmPNS0_5AgentEP9uv_loop_sE4args_0) #13
  tail call void @abort() #14
  unreachable

do.end25:                                         ; preds = %do.end10
  ret void
}